Certificate:
    Data:
        Version: 3 (0x2)
        Serial Number: 17724718013092467012 (0xf5fad91f92581144)
    Signature Algorithm: sha256WithRSAEncryption
        Issuer: C=US, ST=Delaware, O=UAS, CN=UAS-CA
        Validity
            Not Before: Aug 18 07:42:10 2017 GMT
            Not After : Aug 17 07:42:10 2020 GMT
        Subject: C=US, ST=Delaware, O=UAS, CN=UAS-CA
        Subject Public Key Info:
            Public Key Algorithm: rsaEncryption
                Public-Key: (2048 bit)
                Modulus:
                    00:c9:0d:97:ae:42:01:04:52:e5:cf:0e:1a:69:48:
                    9a:2d:33:58:d1:30:5c:ae:e7:72:cf:04:3f:8c:c1:
                    78:39:ab:78:e2:58:af:2b:4d:ae:5d:e7:a4:cc:ff:
                    e9:8c:e0:0e:82:fd:09:9c:e4:94:4c:c9:5e:81:39:
                    08:f0:6f:c5:a1:24:aa:c2:2e:15:80:9e:0e:fb:82:
                    81:e8:8d:2e:c9:5e:23:cb:e1:85:78:a7:5d:1a:84:
                    be:61:c5:8c:42:09:a0:43:e0:05:e4:98:7a:38:a6:
                    bd:0d:e0:80:c9:76:fb:bd:25:41:8a:45:8c:43:8e:
                    77:e3:01:4f:62:25:29:71:81:ae:03:32:49:9b:66:
                    24:04:bc:a4:4f:72:07:4d:3e:64:ac:52:79:10:1e:
                    58:a6:54:c2:5a:34:71:13:75:7b:18:e5:87:70:2c:
                    54:d2:aa:f3:20:75:bc:73:2c:e8:31:d4:58:a7:73:
                    59:b9:9f:a7:c1:5c:c0:5e:f2:e6:c5:0c:d0:1c:12:
                    84:b6:5e:5c:73:62:c6:f1:9d:b1:0f:49:8a:de:65:
                    0d:92:80:b7:f4:5a:55:17:cd:80:c2:ff:dd:8e:2f:
                    35:da:88:6d:b7:53:b4:be:ca:9b:a7:35:e3:71:8b:
                    8f:67:35:89:9b:7e:80:8c:98:d1:49:10:6b:7f:49:
                    67:ed
                Exponent: 65537 (0x10001)
        X509v3 extensions:
            X509v3 Subject Key Identifier: 
                AF:BD:A8:2A:E1:A2:8F:1D:E0:C7:21:BE:E6:86:0A:FF:21:78:6D:0D
            X509v3 Authority Key Identifier: 
                keyid:AF:BD:A8:2A:E1:A2:8F:1D:E0:C7:21:BE:E6:86:0A:FF:21:78:6D:0D

            X509v3 Basic Constraints: 
                CA:TRUE
    Signature Algorithm: sha256WithRSAEncryption
         28:80:6e:73:3a:f1:b7:54:71:d7:c0:86:89:3b:22:fe:a3:7d:
         5d:02:a4:45:02:39:f9:0f:b4:8b:12:8d:98:c1:91:d7:8c:fe:
         57:9c:8b:db:82:df:7a:78:09:ba:4a:b2:a2:26:e0:69:c8:b3:
         ac:61:da:2e:cf:ce:b7:e9:e0:38:03:57:75:eb:13:cd:f4:4b:
         34:5a:87:aa:83:fd:77:16:85:02:3d:5b:5c:5f:88:e0:46:cd:
         5a:3b:93:24:93:d0:33:9f:71:43:71:ee:c7:4a:a7:df:c9:32:
         25:32:e0:1b:7a:2b:cb:fc:01:c9:69:f5:0b:c5:a6:c4:10:06:
         b8:f1:41:78:32:14:7b:29:3a:46:2e:39:b4:f1:76:c5:72:9c:
         e9:5c:06:a0:82:47:29:58:19:48:8b:99:83:1c:e3:39:b6:55:
         46:de:6b:83:a4:fd:e7:93:ef:03:04:04:af:87:d7:26:af:8c:
         b3:6f:35:b1:53:ba:4c:b8:c4:f0:9a:44:ac:e0:80:6c:3b:31:
         ad:e8:60:58:c5:66:05:91:72:c1:f0:9c:71:79:c7:e8:af:7b:
         34:e8:54:96:bd:45:f7:81:98:95:58:a0:0a:37:d8:33:a8:91:
         99:8c:cc:9c:1b:66:a3:f4:2a:a4:06:15:a5:aa:ad:ca:3f:d2:
         f3:8a:74:30
-----BEGIN CERTIFICATE-----
MIIDUTCCAjmgAwIBAgIJAPX62R+SWBFEMA0GCSqGSIb3DQEBCwUAMD8xCzAJBgNV
BAYTAlVTMREwDwYDVQQIDAhEZWxhd2FyZTEMMAoGA1UECgwDVUFTMQ8wDQYDVQQD
DAZVQVMtQ0EwHhcNMTcwODE4MDc0MjEwWhcNMjAwODE3MDc0MjEwWjA/MQswCQYD
VQQGEwJVUzERMA8GA1UECAwIRGVsYXdhcmUxDDAKBgNVBAoMA1VBUzEPMA0GA1UE
AwwGVUFTLUNBMIIBIjANBgkqhkiG9w0BAQEFAAOCAQ8AMIIBCgKCAQEAyQ2XrkIB
BFLlzw4aaUiaLTNY0TBcrudyzwQ/jMF4Oat44livK02uXeekzP/pjOAOgv0JnOSU
TMlegTkI8G/FoSSqwi4VgJ4O+4KB6I0uyV4jy+GFeKddGoS+YcWMQgmgQ+AF5Jh6
OKa9DeCAyXb7vSVBikWMQ4534wFPYiUpcYGuAzJJm2YkBLykT3IHTT5krFJ5EB5Y
plTCWjRxE3V7GOWHcCxU0qrzIHW8cyzoMdRYp3NZuZ+nwVzAXvLmxQzQHBKEtl5c
c2LG8Z2xD0mK3mUNkoC39FpVF82Awv/dji812ohtt1O0vsqbpzXjcYuPZzWJm36A
jJjRSRBrf0ln7QIDAQABo1AwTjAdBgNVHQ4EFgQUr72oKuGijx3gxyG+5oYK/yF4
bQ0wHwYDVR0jBBgwFoAUr72oKuGijx3gxyG+5oYK/yF4bQ0wDAYDVR0TBAUwAwEB
/zANBgkqhkiG9w0BAQsFAAOCAQEAKIBuczrxt1Rx18CGiTsi/qN9XQKkRQI5+Q+0
ixKNmMGR14z+V5yL24LfengJukqyoibgacizrGHaLs/Ot+ngOANXdesTzfRLNFqH
qoP9dxaFAj1bXF+I4EbNWjuTJJPQM59xQ3Hux0qn38kyJTLgG3ory/wByWn1C8Wm
xBAGuPFBeDIUeyk6Ri45tPF2xXKc6VwGoIJHKVgZSIuZgxzjObZVRt5rg6T955Pv
AwQEr4fXJq+Ms281sVO6TLjE8JpErOCAbDsxrehgWMVmBZFywfCccXnH6K97NOhU
lr1F94GYlVigCjfYM6iRmYzMnBtmo/QqpAYVpaqtyj/S84p0MA==
-----END CERTIFICATE-----
